target datalayout = "e-m:e-p270:32:32-p271:32:32-p272:64:64-i64:64-i128:128-f80:128-n8:16:32:64-S128"
target triple = "x86_64-pc-linux-gnu"

%struct._GtkDarktableGradientSlider = type { %struct._GtkDrawingArea, ptr, i32, i32, i32, [10 x double], [10 x double], [10 x i32], double, double, [3 x double], i32, i32, i32, i32, i32, i32, i32, i32, i32, ptr }
%struct._GtkDrawingArea = type { %struct._GtkWidget, ptr }
%struct._GtkWidget = type { %struct._GObject, ptr }
%struct._GObject = type { %struct._GTypeInstance, i32, ptr }
%struct._GTypeInstance = type { ptr }
%struct._cairo_rectangle_int = type { i32, i32, i32, i32 }

@_gradient_slider_get_type.static_g_define_type_id = internal global i64 0, align 8

; Function Attrs: nounwind uwtable
define i64 @_gradient_slider_get_type() #0 {
  %1 = alloca i32, align 4
  %2 = alloca i64, align 8
  %3 = alloca ptr, align 8
  %4 = alloca i64, align 8
  %5 = alloca i64, align 8
  call void @llvm.lifetime.start.p0(i64 8, ptr %2) #11
  call void @llvm.lifetime.start.p0(i64 8, ptr %3) #11
  store ptr @_gradient_slider_get_type.static_g_define_type_id, ptr %3, align 8, !tbaa !6
  %6 = load ptr, ptr %3, align 8, !tbaa !6
  %7 = load atomic i64, ptr %6 seq_cst, align 8
  store i64 %7, ptr %2, align 8
  %8 = load i64, ptr %2, align 8, !tbaa !11
  store i64 %8, ptr %4, align 8, !tbaa !11
  call void @llvm.lifetime.end.p0(i64 8, ptr %3) #11
  call void @llvm.lifetime.end.p0(i64 8, ptr %2) #11
  %9 = load i64, ptr %4, align 8, !tbaa !11
  %10 = icmp ne i64 %9, 0
  br i1 %10, label %14, label %11

11:                                               ; preds = %0
  %12 = call i32 @g_once_init_enter(ptr noundef @_gradient_slider_get_type.static_g_define_type_id)
  %13 = icmp ne i32 %12, 0
  br label %14

14:                                               ; preds = %11, %0
  %15 = phi i1 [ false, %0 ], [ %13, %11 ]
  %16 = zext i1 %15 to i32
  store i32 %16, ptr %1, align 4, !tbaa !13
  %17 = load i32, ptr %1, align 4, !tbaa !13
  %18 = icmp ne i32 %17, 0
  br i1 %18, label %19, label %22

19:                                               ; preds = %14
  call void @llvm.lifetime.start.p0(i64 8, ptr %5) #11
  %20 = call i64 @_gradient_slider_get_type_once()
  store i64 %20, ptr %5, align 8, !tbaa !11
  %21 = load i64, ptr %5, align 8, !tbaa !11
  call void @g_once_init_leave(ptr noundef @_gradient_slider_get_type.static_g_define_type_id, i64 noundef %21)
  call void @llvm.lifetime.end.p0(i64 8, ptr %5) #11
  br label %22

22:                                               ; preds = %19, %14
  %23 = load i64, ptr @_gradient_slider_get_type.static_g_define_type_id, align 8, !tbaa !11
  ret i64 %23
}

; Function Attrs: nounwind uwtable
define i64 @dtgtk_gradient_slider_get_type() #0 {
  %1 = call i64 @_gradient_slider_get_type()
  ret i64 %1
}

; Function Attrs: inlinehint nounwind uwtable
define internal double @_screen_to_scale(ptr noundef %0, i32 noundef %1) #8 {
  %3 = alloca ptr, align 8
  %4 = alloca i32, align 4
  %5 = alloca ptr, align 8
  %6 = alloca %struct._cairo_rectangle_int, align 4
  store ptr %0, ptr %3, align 8, !tbaa !54
  store i32 %1, ptr %4, align 4, !tbaa !13
  call void @llvm.lifetime.start.p0(i64 8, ptr %5) #11
  %7 = load ptr, ptr %3, align 8, !tbaa !54
  %8 = call ptr @DTGTK_GRADIENT_SLIDER(ptr noundef %7)
  store ptr %8, ptr %5, align 8, !tbaa !24
  call void @llvm.lifetime.start.p0(i64 16, ptr %6) #11
  %9 = load ptr, ptr %3, align 8, !tbaa !54
  call void @gtk_widget_get_allocation(ptr noundef %9, ptr noundef %6)
  %10 = load i32, ptr %4, align 4, !tbaa !13
  %11 = sitofp i32 %10 to double
  %12 = load ptr, ptr %5, align 8, !tbaa !24
  %13 = getelementptr inbounds nuw %struct._GtkDarktableGradientSlider, ptr %12, i32 0, i32 11
  %14 = load i32, ptr %13, align 8, !tbaa !48
  %15 = sitofp i32 %14 to double
  %16 = fsub reassoc nsz arcp contract afn double %11, %15
  %17 = getelementptr inbounds nuw %struct._cairo_rectangle_int, ptr %6, i32 0, i32 2
  %18 = load i32, ptr %17, align 4, !tbaa !132
  %19 = sitofp i32 %18 to double
  %20 = load ptr, ptr %5, align 8, !tbaa !24
  %21 = getelementptr inbounds nuw %struct._GtkDarktableGradientSlider, ptr %20, i32 0, i32 11
  %22 = load i32, ptr %21, align 8, !tbaa !48
  %23 = sitofp i32 %22 to double
  %24 = fsub reassoc nsz arcp contract afn double %19, %23
  %25 = load ptr, ptr %5, align 8, !tbaa !24
  %26 = getelementptr inbounds nuw %struct._GtkDarktableGradientSlider, ptr %25, i32 0, i32 12
  %27 = load i32, ptr %26, align 4, !tbaa !47
  %28 = sitofp i32 %27 to double
  %29 = fsub reassoc nsz arcp contract afn double %24, %28
  %30 = fdiv reassoc nsz arcp contract afn double %16, %29
  call void @llvm.lifetime.end.p0(i64 16, ptr %6) #11
  call void @llvm.lifetime.end.p0(i64 8, ptr %5) #11
  ret double %30
}

; Function Attrs: inlinehint nounwind uwtable
define internal ptr @DTGTK_GRADIENT_SLIDER(ptr noundef %0) #8 {
  %2 = alloca ptr, align 8
  store ptr %0, ptr %2, align 8, !tbaa !15
  %3 = load ptr, ptr %2, align 8, !tbaa !15
  %4 = call i64 @dtgtk_gradient_slider_get_type()
  %5 = call ptr @g_type_check_instance_cast(ptr noundef %3, i64 noundef %4)
  ret ptr %5
}

; Function Attrs: inlinehint nounwind uwtable
define internal double @_get_position_from_screen(ptr noundef %0, double noundef %1) #8 {
  %3 = alloca ptr, align 8
  %4 = alloca double, align 8
  %5 = alloca ptr, align 8
  %6 = alloca double, align 8
  store ptr %0, ptr %3, align 8, !tbaa !54
  store double %1, ptr %4, align 8, !tbaa !45
  call void @llvm.lifetime.start.p0(i64 8, ptr %5) #11
  %7 = load ptr, ptr %3, align 8, !tbaa !54
  %8 = call ptr @DTGTK_GRADIENT_SLIDER(ptr noundef %7)
  store ptr %8, ptr %5, align 8, !tbaa !24
  call void @llvm.lifetime.start.p0(i64 8, ptr %6) #11
  %9 = load ptr, ptr %3, align 8, !tbaa !54
  %10 = load double, ptr %4, align 8, !tbaa !45
  %11 = fptosi double %10 to i32
  %12 = call reassoc nsz arcp contract afn double @_screen_to_scale(ptr noundef %9, i32 noundef %11)
  %13 = load ptr, ptr %5, align 8, !tbaa !24
  %14 = getelementptr inbounds nuw %struct._GtkDarktableGradientSlider, ptr %13, i32 0, i32 8
  %15 = load double, ptr %14, align 8, !tbaa !46
  %16 = fdiv reassoc nsz arcp contract afn double %12, %15
  %17 = fptrunc reassoc nsz arcp contract afn double %16 to float
  %18 = call reassoc nsz arcp contract afn float @llvm.round.f32(float %17)
  %19 = fpext reassoc nsz arcp contract afn float %18 to double
  %20 = load ptr, ptr %5, align 8, !tbaa !24
  %21 = getelementptr inbounds nuw %struct._GtkDarktableGradientSlider, ptr %20, i32 0, i32 8
  %22 = load double, ptr %21, align 8, !tbaa !46
  %23 = fmul reassoc nsz arcp contract afn double %19, %22
  store double %23, ptr %6, align 8, !tbaa !45
  %24 = load double, ptr %6, align 8, !tbaa !45
  %25 = fcmp reassoc nsz arcp contract afn ogt double %24, 1.000000e+00
  br i1 %25, label %26, label %27

26:                                               ; preds = %2
  br label %35

27:                                               ; preds = %2
  %28 = load double, ptr %6, align 8, !tbaa !45
  %29 = fcmp reassoc nsz arcp contract afn olt double %28, 0.000000e+00
  br i1 %29, label %30, label %31

30:                                               ; preds = %27
  br label %33

31:                                               ; preds = %27
  %32 = load double, ptr %6, align 8, !tbaa !45
  br label %33

33:                                               ; preds = %31, %30
  %34 = phi reassoc nsz arcp contract afn double [ 0.000000e+00, %30 ], [ %32, %31 ]
  br label %35

35:                                               ; preds = %33, %26
  %36 = phi reassoc nsz arcp contract afn double [ 1.000000e+00, %26 ], [ %34, %33 ]
  call void @llvm.lifetime.end.p0(i64 8, ptr %6) #11
  call void @llvm.lifetime.end.p0(i64 8, ptr %5) #11
  ret double %36
}