; Function Attrs: inlinehint nounwind uwtable
define internal fastcc double @_get_position_from_screen(ptr noundef %0, double noundef %1) unnamed_addr #11 {
  %3 = alloca %struct._cairo_rectangle_int, align 4
  %4 = load atomic i64, ptr @_gradient_slider_get_type.static_g_define_type_id seq_cst, align 8
  %.not.i.i.i = icmp eq i64 %4, 0
  br i1 %.not.i.i.i, label %5, label %DTGTK_GRADIENT_SLIDER.exit

5:                                                ; preds = %2
  %6 = tail call i32 @g_once_init_enter(ptr noundef nonnull @_gradient_slider_get_type.static_g_define_type_id) #14
  %.not4.i.i.i = icmp eq i32 %6, 0
  br i1 %.not4.i.i.i, label %DTGTK_GRADIENT_SLIDER.exit, label %7

7:                                                ; preds = %5
  %8 = tail call fastcc i64 @_gradient_slider_get_type_once()
  tail call void @g_once_init_leave(ptr noundef nonnull @_gradient_slider_get_type.static_g_define_type_id, i64 noundef %8) #14
  br label %DTGTK_GRADIENT_SLIDER.exit

DTGTK_GRADIENT_SLIDER.exit:                       ; preds = %2, %5, %7
  %9 = load i64, ptr @_gradient_slider_get_type.static_g_define_type_id, align 8, !tbaa !6
  %10 = tail call ptr @g_type_check_instance_cast(ptr noundef %0, i64 noundef %9) #14
  %11 = load atomic i64, ptr @_gradient_slider_get_type.static_g_define_type_id seq_cst, align 8
  %.not.i.i.i.i = icmp eq i64 %11, 0
  br i1 %.not.i.i.i.i, label %12, label %_screen_to_scale.exit

12:                                               ; preds = %DTGTK_GRADIENT_SLIDER.exit
  %13 = tail call i32 @g_once_init_enter(ptr noundef nonnull @_gradient_slider_get_type.static_g_define_type_id) #14
  %.not4.i.i.i.i = icmp eq i32 %13, 0
  br i1 %.not4.i.i.i.i, label %_screen_to_scale.exit, label %14

14:                                               ; preds = %12
  %15 = tail call fastcc i64 @_gradient_slider_get_type_once()
  tail call void @g_once_init_leave(ptr noundef nonnull @_gradient_slider_get_type.static_g_define_type_id, i64 noundef %15) #14
  br label %_screen_to_scale.exit

_screen_to_scale.exit:                            ; preds = %DTGTK_GRADIENT_SLIDER.exit, %12, %14
  %16 = fptosi double %1 to i32
  %17 = load i64, ptr @_gradient_slider_get_type.static_g_define_type_id, align 8, !tbaa !6
  %18 = tail call ptr @g_type_check_instance_cast(ptr noundef %0, i64 noundef %17) #14
  call void @llvm.lifetime.start.p0(i64 16, ptr nonnull %3) #14
  call void @gtk_widget_get_allocation(ptr noundef %0, ptr noundef nonnull %3) #14
  %19 = sitofp i32 %16 to double
  %20 = getelementptr inbounds nuw i8, ptr %18, i64 304
  %21 = load i32, ptr %20, align 8, !tbaa !40
  %22 = sitofp i32 %21 to double
  %23 = fsub reassoc nsz arcp contract afn double %19, %22
  %24 = getelementptr inbounds nuw i8, ptr %3, i64 8
  %25 = load i32, ptr %24, align 4, !tbaa !117
  %26 = sitofp i32 %25 to double
  %27 = getelementptr inbounds nuw i8, ptr %18, i64 308
  %28 = load i32, ptr %27, align 4, !tbaa !39
  %29 = sitofp i32 %28 to double
  %30 = fadd reassoc nsz arcp contract afn double %22, %29
  %31 = fsub reassoc nsz arcp contract afn double %26, %30
  call void @llvm.lifetime.end.p0(i64 16, ptr nonnull %3) #14
  %32 = getelementptr inbounds nuw i8, ptr %10, i64 264
  %33 = load double, ptr %32, align 8, !tbaa !38
  %34 = fmul reassoc nsz arcp contract afn double %31, %33
  %35 = fdiv reassoc nsz arcp contract afn double %23, %34
  %36 = fptrunc reassoc nsz arcp contract afn double %35 to float
  %37 = call reassoc nsz arcp contract afn float @llvm.round.f32(float %36)
  %38 = fpext reassoc nsz arcp contract afn float %37 to double
  %39 = fmul reassoc nsz arcp contract afn double %33, %38
  %40 = fcmp reassoc nsz arcp contract afn ogt double %39, 1.000000e+00
  %41 = fcmp reassoc nsz arcp contract afn olt double %39, 0.000000e+00
  %42 = select reassoc nsz arcp contract afn i1 %41, double 0.000000e+00, double %39
  %43 = select reassoc nsz arcp contract afn i1 %40, double 1.000000e+00, double %42
  ret double %43
}